(lp0
S'/home/teste/workspace/newcastlemarch20/workData/LowAchieverse/ELD-AW-on 8-5 at 1_5.csv'
p1
aS'/home/teste/workspace/newcastlemarch20/workData/LowAchieverse/JCB-WC-22-4 at 13_47.csv'
p2
aS'/home/teste/workspace/newcastlemarch20/workData/LowAchieverse/GSA-WC-on 21-4 at 13_51.csv'
p3
aS'/home/teste/workspace/newcastlemarch20/workData/LowAchieverse/DLE-OH-on 30-4 at 2_30.csv'
p4
aS'/home/teste/workspace/newcastlemarch20/workData/LowAchieverse/ELD-WC-on 22-4 at 10_19.csv'
p5
a.