(lp0
S'/home/teste/workspace/newcastlemarch20/workData/HighAchievers/CLE-OH-on 30-4 at 5_27.csv'
p1
aS'/home/teste/workspace/newcastlemarch20/workData/HighAchievers/RLL-WC-22-4 at 11_49.csv'
p2
aS'/home/teste/workspace/newcastlemarch20/workData/HighAchievers/BDB-WC-on 21-4 at 11_44.csv'
p3
aS'/home/teste/workspace/newcastlemarch20/workData/HighAchievers/CEL-WC-on 21-4 at 10_17.csv'
p4
aS'/home/teste/workspace/newcastlemarch20/workData/HighAchievers/CLE-AW-on 11-5 at 4_34.csv'
p5
a.